target datalayout = "e-m:e-p270:32:32-p271:32:32-p272:64:64-i64:64-i128:128-f80:128-n8:16:32:64-S128"
target triple = "x86_64-pc-linux-gnu"

%struct.UEnumeration = type { ptr, ptr, ptr, ptr, ptr, ptr, ptr }
%struct.UKeywordsContext = type { ptr, ptr }

; Function Attrs: mustprogress nounwind uwtable
define internal noundef ptr @_ZL19uloc_kw_nextKeywordP12UEnumerationPiP10UErrorCode(ptr noundef %0, ptr noundef %1, ptr noundef %2) #0 {
  %4 = alloca ptr, align 8
  %5 = alloca ptr, align 8
  %6 = alloca ptr, align 8
  %7 = alloca ptr, align 8
  %8 = alloca i32, align 4
  store ptr %0, ptr %4, align 8, !tbaa !107
  store ptr %1, ptr %5, align 8, !tbaa !20
  store ptr %2, ptr %6, align 8, !tbaa !22
  call void @llvm.lifetime.start.p0(i64 8, ptr %7) #11
  %9 = load ptr, ptr %4, align 8, !tbaa !107
  %10 = getelementptr inbounds nuw %struct.UEnumeration, ptr %9, i32 0, i32 1
  %11 = load ptr, ptr %10, align 8, !tbaa !99
  %12 = getelementptr inbounds nuw %struct.UKeywordsContext, ptr %11, i32 0, i32 1
  %13 = load ptr, ptr %12, align 8, !tbaa !98
  store ptr %13, ptr %7, align 8, !tbaa !17
  call void @llvm.lifetime.start.p0(i64 4, ptr %8) #11
  store i32 0, ptr %8, align 4, !tbaa !14
  %14 = load ptr, ptr %7, align 8, !tbaa !17
  %15 = load i8, ptr %14, align 1, !tbaa !25
  %16 = icmp ne i8 %15, 0
  br i1 %16, label %17, label %34

17:                                               ; preds = %3
  %18 = load ptr, ptr %4, align 8, !tbaa !107
  %19 = getelementptr inbounds nuw %struct.UEnumeration, ptr %18, i32 0, i32 1
  %20 = load ptr, ptr %19, align 8, !tbaa !99
  %21 = getelementptr inbounds nuw %struct.UKeywordsContext, ptr %20, i32 0, i32 1
  %22 = load ptr, ptr %21, align 8, !tbaa !98
  %23 = call i64 @strlen(ptr noundef %22) #14
  %24 = trunc i64 %23 to i32
  store i32 %24, ptr %8, align 4, !tbaa !14
  %25 = load i32, ptr %8, align 4, !tbaa !14
  %26 = add nsw i32 %25, 1
  %27 = load ptr, ptr %4, align 8, !tbaa !107
  %28 = getelementptr inbounds nuw %struct.UEnumeration, ptr %27, i32 0, i32 1
  %29 = load ptr, ptr %28, align 8, !tbaa !99
  %30 = getelementptr inbounds nuw %struct.UKeywordsContext, ptr %29, i32 0, i32 1
  %31 = load ptr, ptr %30, align 8, !tbaa !98
  %32 = sext i32 %26 to i64
  %33 = getelementptr inbounds i8, ptr %31, i64 %32
  store ptr %33, ptr %30, align 8, !tbaa !98
  br label %35

34:                                               ; preds = %3
  store ptr null, ptr %7, align 8, !tbaa !17
  br label %35

35:                                               ; preds = %34, %17
  %36 = load ptr, ptr %5, align 8, !tbaa !20
  %37 = icmp ne ptr %36, null
  br i1 %37, label %38, label %41

38:                                               ; preds = %35
  %39 = load i32, ptr %8, align 4, !tbaa !14
  %40 = load ptr, ptr %5, align 8, !tbaa !20
  store i32 %39, ptr %40, align 4, !tbaa !14
  br label %41

41:                                               ; preds = %38, %35
  %42 = load ptr, ptr %7, align 8, !tbaa !17
  call void @llvm.lifetime.end.p0(i64 4, ptr %8) #11
  call void @llvm.lifetime.end.p0(i64 8, ptr %7) #11
  ret ptr %42
}