; Function Attrs: mustprogress nofree nounwind willreturn memory(readwrite, inaccessiblemem: none) uwtable
define internal noundef ptr @_ZL19uloc_kw_nextKeywordP12UEnumerationPiP10UErrorCode(ptr noundef readonly captures(none) %0, ptr noundef writeonly %1, ptr readnone captures(none) %2) #15 {
  %4 = getelementptr inbounds nuw i8, ptr %0, i64 8
  %5 = load ptr, ptr %4, align 8, !tbaa !90
  %6 = getelementptr inbounds nuw i8, ptr %5, i64 8
  %7 = load ptr, ptr %6, align 8, !tbaa !89
  %8 = load i8, ptr %7, align 1, !tbaa !20
  %.not = icmp eq i8 %8, 0
  br i1 %.not, label %15, label %9

9:                                                ; preds = %3
  %10 = tail call i64 @strlen(ptr noundef nonnull dereferenceable(1) %7) #23
  %11 = trunc i64 %10 to i32
  %12 = shl i64 %10, 32
  %sext = add i64 %12, 4294967296
  %13 = ashr exact i64 %sext, 32
  %14 = getelementptr inbounds i8, ptr %7, i64 %13
  store ptr %14, ptr %6, align 8, !tbaa !89
  br label %15

15:                                               ; preds = %3, %9
  %.08 = phi ptr [ %7, %9 ], [ null, %3 ]
  %.0 = phi i32 [ %11, %9 ], [ 0, %3 ]
  %.not10 = icmp eq ptr %1, null
  br i1 %.not10, label %17, label %16

16:                                               ; preds = %15
  store i32 %.0, ptr %1, align 4, !tbaa !12
  br label %17

17:                                               ; preds = %16, %15
  ret ptr %.08
}